; Function Attrs: nounwind uwtable
define dso_local range(i32 -1, 1) i32 @add_next_index_array(ptr noundef readonly captures(none) %0, ptr noundef %1) local_unnamed_addr #2 {
  %3 = alloca %struct._zval_struct, align 8
  call void @llvm.lifetime.start.p0(i64 16, ptr nonnull %3) #34
  store ptr %1, ptr %3, align 8, !tbaa !42
  %4 = getelementptr inbounds nuw i8, ptr %3, i64 8
  store i32 775, ptr %4, align 8, !tbaa !42
  %5 = load ptr, ptr %0, align 8, !tbaa !42
  %6 = call ptr @zend_hash_next_index_insert(ptr noundef %5, ptr noundef nonnull %3) #34
  %.not = icmp eq ptr %6, null
  %7 = sext i1 %.not to i32
  call void @llvm.lifetime.end.p0(i64 16, ptr nonnull %3) #34
  ret i32 %7
}